; Function Attrs: mustprogress nofree norecurse nosync nounwind willreturn memory(read, inaccessiblemem: none) uwtable
define dso_local noundef zeroext i1 @_ZNK4llvm18RegPressureTracker14isBottomClosedEv(ptr nocapture noundef nonnull readonly align 8 dereferenceable(352) %0) local_unnamed_addr #3 align 2 {
  %2 = getelementptr inbounds nuw i8, ptr %0, i64 56
  %3 = load i8, ptr %2, align 8
  %4 = trunc i8 %3 to i1
  %5 = getelementptr inbounds nuw i8, ptr %0, i64 48
  %6 = load ptr, ptr %5, align 8
  %7 = getelementptr inbounds nuw i8, ptr %6, i64 320
  br i1 %4, label %8, label %10

8:                                                ; preds = %1
  %.0.copyload.i.i.i.i = load i64, ptr %7, align 8
  %9 = icmp ugt i64 %.0.copyload.i.i.i.i, 7
  br label %13

10:                                               ; preds = %1
  %11 = load ptr, ptr %7, align 8
  %12 = icmp eq ptr %11, null
  br label %13

13:                                               ; preds = %10, %8
  %.0 = phi i1 [ %9, %8 ], [ %12, %10 ]
  ret i1 %.0
}